target datalayout = "e-m:e-p270:32:32-p271:32:32-p272:64:64-i64:64-i128:128-f80:128-n8:16:32:64-S128"
target triple = "x86_64-pc-linux-gnu"

%struct._object = type { i64, ptr }
%"struct.nanobind::detail::nb_inst" = type { %struct._object, i32, i32 }

; Function Attrs: mustprogress nounwind uwtable
define void @_ZN8nanobind6detail17nb_inst_set_stateEP7_objectbb(ptr noundef %0, i1 noundef zeroext %1, i1 noundef zeroext %2) #6 {
  %4 = alloca ptr, align 8
  %5 = alloca i8, align 1
  %6 = alloca i8, align 1
  %7 = alloca ptr, align 8
  store ptr %0, ptr %4, align 8
  %8 = zext i1 %1 to i8
  store i8 %8, ptr %5, align 1
  %9 = zext i1 %2 to i8
  store i8 %9, ptr %6, align 1
  call void @llvm.lifetime.start.p0(i64 8, ptr %7) #20
  %10 = load ptr, ptr %4, align 8
  store ptr %10, ptr %7, align 8
  %11 = load i8, ptr %5, align 1, !range !3, !noundef !4
  %12 = trunc i8 %11 to i1
  %13 = select i1 %12, i32 2, i32 0
  %14 = load ptr, ptr %7, align 8
  %15 = getelementptr inbounds nuw %"struct.nanobind::detail::nb_inst", ptr %14, i32 0, i32 2
  %16 = load i32, ptr %15, align 4
  %17 = and i32 %13, 3
  %18 = and i32 %16, -4
  %19 = or i32 %18, %17
  store i32 %19, ptr %15, align 4
  %20 = load i8, ptr %6, align 1, !range !3, !noundef !4
  %21 = trunc i8 %20 to i1
  %22 = zext i1 %21 to i32
  %23 = load ptr, ptr %7, align 8
  %24 = getelementptr inbounds nuw %"struct.nanobind::detail::nb_inst", ptr %23, i32 0, i32 2
  %25 = load i32, ptr %24, align 4
  %26 = and i32 %22, 1
  %27 = shl i32 %26, 4
  %28 = and i32 %25, -17
  %29 = or i32 %28, %27
  store i32 %29, ptr %24, align 4
  %30 = load i8, ptr %6, align 1, !range !3, !noundef !4
  %31 = trunc i8 %30 to i1
  br i1 %31, label %32, label %40

32:                                               ; preds = %3
  %33 = load ptr, ptr %7, align 8
  %34 = getelementptr inbounds nuw %"struct.nanobind::detail::nb_inst", ptr %33, i32 0, i32 2
  %35 = load i32, ptr %34, align 4
  %36 = lshr i32 %35, 3
  %37 = and i32 %36, 1
  %38 = icmp ne i32 %37, 0
  %39 = xor i1 %38, true
  br label %40

40:                                               ; preds = %32, %3
  %41 = phi i1 [ false, %3 ], [ %39, %32 ]
  %42 = zext i1 %41 to i32
  %43 = load ptr, ptr %7, align 8
  %44 = getelementptr inbounds nuw %"struct.nanobind::detail::nb_inst", ptr %43, i32 0, i32 2
  %45 = load i32, ptr %44, align 4
  %46 = and i32 %42, 1
  %47 = shl i32 %46, 5
  %48 = and i32 %45, -33
  %49 = or i32 %48, %47
  store i32 %49, ptr %44, align 4
  call void @llvm.lifetime.end.p0(i64 8, ptr %7) #20
  ret void
}