; Function Attrs: mustprogress nofree norecurse nosync nounwind willreturn memory(argmem: readwrite) uwtable
define void @_ZN8nanobind6detail17nb_inst_set_stateEP7_objectbb(ptr noundef captures(none) %0, i1 noundef zeroext %1, i1 noundef zeroext %2) local_unnamed_addr #20 {
  %4 = select i1 %1, i32 2, i32 0
  %5 = getelementptr inbounds nuw i8, ptr %0, i64 20
  %6 = load i32, ptr %5, align 4
  %7 = and i32 %6, -52
  %8 = select i1 %2, i32 16, i32 0
  %9 = or disjoint i32 %8, %4
  %10 = or disjoint i32 %9, %7
  %11 = shl i32 %6, 2
  %12 = and i32 %11, 32
  %13 = xor i32 %12, 32
  %14 = select i1 %2, i32 %13, i32 0
  %15 = or disjoint i32 %10, %14
  store i32 %15, ptr %5, align 4
  ret void
}